; Function Attrs: mustprogress nofree norecurse nosync nounwind memory(read, argmem: readwrite, inaccessiblemem: none) uwtable
define hidden void @_ZN5DictIppEv(ptr nocapture noundef nonnull align 8 dereferenceable(32) %0) local_unnamed_addr #5 align 2 {
  %2 = getelementptr inbounds i8, ptr %0, i64 12
  %3 = load i32, ptr %2, align 4
  %4 = add i32 %3, -1
  store i32 %4, ptr %2, align 4
  %.not = icmp eq i32 %3, 0
  br i1 %.not, label %.preheader, label %9

.preheader:                                       ; preds = %1
  %5 = getelementptr inbounds i8, ptr %0, i64 8
  %6 = load ptr, ptr %0, align 8
  %7 = getelementptr inbounds i8, ptr %6, i64 16
  %8 = getelementptr inbounds i8, ptr %6, i64 8
  %.pre = load i32, ptr %5, align 8
  br label %31

9:                                                ; preds = %1
  %10 = load ptr, ptr %0, align 8
  %11 = getelementptr inbounds i8, ptr %10, i64 8
  %12 = load ptr, ptr %11, align 8
  %13 = getelementptr inbounds i8, ptr %0, i64 8
  %14 = load i32, ptr %13, align 8
  %15 = zext i32 %14 to i64
  %16 = getelementptr inbounds %class.bucket, ptr %12, i64 %15, i32 2
  %17 = load ptr, ptr %16, align 8
  %18 = shl i32 %4, 1
  %19 = zext i32 %18 to i64
  %20 = getelementptr inbounds ptr, ptr %17, i64 %19
  %21 = load ptr, ptr %20, align 8
  %22 = getelementptr inbounds i8, ptr %0, i64 16
  store ptr %21, ptr %22, align 8
  %23 = load ptr, ptr %11, align 8
  %24 = getelementptr inbounds %class.bucket, ptr %23, i64 %15, i32 2
  %25 = load ptr, ptr %24, align 8
  %26 = or disjoint i32 %18, 1
  %27 = zext i32 %26 to i64
  %28 = getelementptr inbounds ptr, ptr %25, i64 %27
  %29 = load ptr, ptr %28, align 8
  %30 = getelementptr inbounds i8, ptr %0, i64 24
  store ptr %29, ptr %30, align 8
  br label %61

31:                                               ; preds = %.preheader, %36
  %32 = phi i32 [ %.pre, %.preheader ], [ %33, %36 ]
  %33 = add i32 %32, 1
  store i32 %33, ptr %5, align 8
  %34 = load i32, ptr %7, align 8
  %35 = icmp ult i32 %33, %34
  br i1 %35, label %36, label %59

36:                                               ; preds = %31
  %37 = load ptr, ptr %8, align 8
  %38 = zext i32 %33 to i64
  %39 = getelementptr inbounds %class.bucket, ptr %37, i64 %38
  %40 = load i32, ptr %39, align 8
  store i32 %40, ptr %2, align 4
  %.not2 = icmp eq i32 %40, 0
  br i1 %.not2, label %31, label %41, !llvm.loop !14

41:                                               ; preds = %36
  %42 = add i32 %40, -1
  store i32 %42, ptr %2, align 4
  %43 = load ptr, ptr %8, align 8
  %44 = getelementptr inbounds %class.bucket, ptr %43, i64 %38, i32 2
  %45 = load ptr, ptr %44, align 8
  %46 = shl i32 %42, 1
  %47 = zext i32 %46 to i64
  %48 = getelementptr inbounds ptr, ptr %45, i64 %47
  %49 = load ptr, ptr %48, align 8
  %50 = getelementptr inbounds i8, ptr %0, i64 16
  store ptr %49, ptr %50, align 8
  %51 = load ptr, ptr %8, align 8
  %52 = getelementptr inbounds %class.bucket, ptr %51, i64 %38, i32 2
  %53 = load ptr, ptr %52, align 8
  %54 = or disjoint i32 %46, 1
  %55 = zext i32 %54 to i64
  %56 = getelementptr inbounds ptr, ptr %53, i64 %55
  %57 = load ptr, ptr %56, align 8
  %58 = getelementptr inbounds i8, ptr %0, i64 24
  store ptr %57, ptr %58, align 8
  br label %61

59:                                               ; preds = %31
  %60 = getelementptr inbounds i8, ptr %0, i64 16
  tail call void @llvm.memset.p0.i64(ptr noundef nonnull align 8 dereferenceable(16) %60, i8 0, i64 16, i1 false)
  br label %61

61:                                               ; preds = %59, %41, %9
  ret void
}